(dp1
S'fname'
p2
Vpython.zip
p3
sS'fcnt'
p4
S'UEsDBBQAAAAIACwpbkV+1lykRgAAAKQAAAARAAAAeHVuaXQgMi9taW5tYXgucHlLSU1TSE8tic/NzNNI1FFI0lFI1rTiUgCCzDQFjUQFG4UkKB9ZLBlJDASKUktKi/IUErnQBJLBAqk5xamoZiThNiMJ0wwAUEsDBBQAAAAIACwpbkWkKl+LLgAAAEMAAAAQAAAAeHVuaXQgMi9hcml0aC5weUtJTVNITEnRSNRRSNK04lIAgqLUktKiPIVEBW2FJC4urhSgioL8cqwqtLSASgBQSwECFAMUAAAACAAsKW5FftZcpEYAAACkAAAAEQAAAAAAAAAAAAAAtIEAAAAAeHVuaXQgMi9taW5tYXgucHlQSwECFAMUAAAACAAsKW5FpCpfiy4AAABDAAAAEAAAAAAAAAAAAAAAtIF1AAAAeHVuaXQgMi9hcml0aC5weVBLBQYAAAAAAgACAH0AAADRAAAAAAA='
p5
s.