(dp1
S'fname'
p2
Vb.zip
p3
sS'fcnt'
p4
S'UEsDBBQAAAAIANyTk0WkKl+LLgAAAEMAAAAQAAAAeHVuaXQgMi9hcml0aC5weUtJTVNITEnRSNRRSNK04lIAgqLUktKiPIVEBW2FJC4urhSgioL8cqwqtLSASgBQSwMEFAAAAAgA3JOTRX7WXKRGAAAApAAAABEAAAB4dW5pdCAyL21pbm1heC5weUtJTVNITy2Jz83M00jUUUjSUUjWtOJSAILMNAWNRAUbhSQoH1ksGUkMBIpSS0qL8hQSudAEksECqTnFqahmJOE2IwnTDABQSwECFAMUAAAACADck5NFpCpfiy4AAABDAAAAEAAAAAAAAAAAAAAApIEAAAAAeHVuaXQgMi9hcml0aC5weVBLAQIUAxQAAAAIANyTk0V+1lykRgAAAKQAAAARAAAAAAAAAAAAAACkgVwAAAB4dW5pdCAyL21pbm1heC5weVBLBQYAAAAAAgACAH0AAADRAAAAAAA='
p5
s.