(dp1
S'fname'
p2
V2012011390_601243_532605559_test_findobj.zip
p3
sS'fcnt'
p4
S'UEsDBBQAAAAIALZlWEWLGOlX7gAAAPoEAAAPAAAAdGVzdF9maW5kb2JqLnB5pZNNCsIwEIX3gncIripIDiC4El3qxn2J7QSj+amdqeDtTWrEIipNm6xm8l7eR8IoU7maWGMVESBNJ7J2hkllS3c8s+dpW+a+hsILwi60QGRb39633YO3rgVC9rqHvzrz5XTC/CpBsnCQt3cZVzYaMgQtW0FcoeadMLbqRmczh7P5W+0RoKbNtRE6+3QuWBT/To/KARC8BuNukMQSPf+Rhr8LrwSd0oCCoxfOiIcKGRwrrSidzfuUphTC8aA+kOdWGMiH8kb7L2wwFd2DJPmTd85Cf6ag/sJQCGvduBnElBlE7AUx4uNkU1wSgDqOB1BLAQI/ABQAAAAIALZlWEWLGOlX7gAAAPoEAAAPACQAAAAAAAAAIAAAAAAAAAB0ZXN0X2ZpbmRvYmoucHkKACAAAAAAAAEAGABzTn9eRe/PAQg3XBND788BCDdcE0PvzwFQSwUGAAAAAAEAAQBhAAAAGwEAAAAA'
p5
s.