(dp1
S'fname'
p2
V111.zip
p3
sS'fcnt'
p4
S'UEsDBAoAAAAAAK+9cEUAAAAAAAAAAAAAAAAEABwAMTExL1VUCQADmsZoVJvGaFR1eAsAAQToAwAABOgDAABQSwMECgAAAAAAr71wRQAAAAAAAAAAAAAAAAcAHAAxMTEvMTExVVQJAAOZxmhUmsZoVHV4CwABBOgDAAAE6AMAAFBLAQIeAwoAAAAAAK+9cEUAAAAAAAAAAAAAAAAEABgAAAAAAAAAEAD9QQAAAAAxMTEvVVQFAAOaxmhUdXgLAAEE6AMAAAToAwAAUEsBAh4DCgAAAAAAr71wRQAAAAAAAAAAAAAAAAcAGAAAAAAAAAAAALSBPgAAADExMS8xMTFVVAUAA5nGaFR1eAsAAQToAwAABOgDAABQSwUGAAAAAAIAAgCXAAAAfwAAAAAA'
p5
s.