(dp1
S'files'
p2
(dp3
S'_home_lzz12_railgun_env_lib_python2_7_site-packages_jinja2_tests'
p4
(dp5
S'index'
p6
(dp7
S'html_filename'
p8
S'_home_lzz12_railgun_env_lib_python2_7_site-packages_jinja2_tests.html'
p9
sS'name'
p10
S'/home/lzz12/railgun/env/lib/python2.7/site-packages/jinja2/tests'
p11
sS'nums'
p12
ccopy_reg
_reconstructor
p13
(ccoverage.results
Numbers
p14
c__builtin__
object
p15
NtRp16
(dp17
S'n_files'
p18
I1
sS'n_branches'
p19
I0
sS'n_statements'
p20
I47
sS'n_excluded'
p21
I0
sS'n_partial_branches'
p22
I0
sS'n_missing'
p23
I24
sS'n_missing_branches'
p24
I0
sbssS'hash'
p25
S'\xb1[}x+R\x19\xd1\xe4\xc4\xf3\xcb"5\xe8\xfd'
p26
ssS'_home_lzz12_railgun_env_lib_python2_7_site-packages_Crypto_Random_OSRNG_posix'
p27
(dp28
g6
(dp29
g8
S'_home_lzz12_railgun_env_lib_python2_7_site-packages_Crypto_Random_OSRNG_posix.html'
p30
sg10
S'/home/lzz12/railgun/env/lib/python2.7/site-packages/Crypto/Random/OSRNG/posix'
p31
sg12
g13
(g14
g15
NtRp32
(dp33
g18
I1
sg19
I0
sg20
I38
sg21
I0
sg22
I0
sg23
I26
sg24
I0
sbssg25
S'l\xe8`\xd2_\xa4\x8f:0\xb2\x07\xcc\xfb\xd5N\xb0'
p34
ssS'_home_lzz12_railgun_env_lib_python2_7_site-packages_werkzeug_formparser'
p35
(dp36
g6
(dp37
g8
S'_home_lzz12_railgun_env_lib_python2_7_site-packages_werkzeug_formparser.html'
p38
sg10
S'/home/lzz12/railgun/env/lib/python2.7/site-packages/werkzeug/formparser'
p39
sg12
g13
(g14
g15
NtRp40
(dp41
g18
I1
sg19
I0
sg20
I246
sg21
I4
sg22
I0
sg23
I197
sg24
I0
sbssg25
S'Iq\x9b(9\x12?\x86\x9c\x8b\xac\x11\xb9Ho7'
p42
ssS'_home_lzz12_railgun_env_lib_python2_7_site-packages_jinja2_bccache'
p43
(dp44
g6
(dp45
g8
S'_home_lzz12_railgun_env_lib_python2_7_site-packages_jinja2_bccache.html'
p46
sg10
S'/home/lzz12/railgun/env/lib/python2.7/site-packages/jinja2/bccache'
p47
sg12
g13
(g14
g15
NtRp48
(dp49
g18
I1
sg19
I0
sg20
I147
sg21
I0
sg22
I0
sg23
I104
sg24
I0
sbssg25
S'r\xee\xabK\x8f\x01\xb0\xfa\xa2rl\xe3)n]\xc4'
p50
ssS'_home_lzz12_railgun_env_lib_python2_7_site-packages_Crypto_Hash___init__'
p51
(dp52
g6
(dp53
g8
S'_home_lzz12_railgun_env_lib_python2_7_site-packages_Crypto_Hash___init__.html'
p54
sg10
S'/home/lzz12/railgun/env/lib/python2.7/site-packages/Crypto/Hash/__init__'
p55
sg12
g13
(g14
g15
NtRp56
(dp57
g18
I1
sg19
I0
sg20
I3
sg21
I0
sg22
I0
sg23
I0
sg24
I0
sbssg25
S'~\xa3\xa9\x14;H\xd6O\x14,S\x83Pfc\xf3'
p58
ssS'_home_lzz12_railgun_env_lib_python2_7_site-packages_babel_util'
p59
(dp60
g6
(dp61
g8
S'_home_lzz12_railgun_env_lib_python2_7_site-packages_babel_util.html'
p62
sg10
S'/home/lzz12/railgun/env/lib/python2.7/site-packages/babel/util'
p63
sg12
g13
(g14
g15
NtRp64
(dp65
g18
I1
sg19
I0
sg20
I137
sg21
I0
sg22
I0
sg23
I87
sg24
I0
sbssg25
S'nK\x0fB\xa9q\x96\xcb\x84\xbd\x01\xb5\x16?0\xc6'
p66
ssS'tests_pyscorer_data_sample_test'
p67
(dp68
g6
(dp69
g8
S'tests_pyscorer_data_sample_test.html'
p70
sg10
S'tests/pyscorer_data/sample_test'
p71
sg12
g13
(g14
g15
NtRp72
(dp73
g18
I1
sg19
I0
sg20
I15
sg21
I0
sg22
I0
sg23
I0
sg24
I0
sbssg25
S'\xd8*\x00\xa5_\xd2~n~t\xb2\xe4@\xa4\xd0^'
p74
ssS'_home_lzz12_railgun_env_lib_python2_7_site-packages_werkzeug_routing'
p75
(dp76
g6
(dp77
g8
S'_home_lzz12_railgun_env_lib_python2_7_site-packages_werkzeug_routing.html'
p78
sg10
S'/home/lzz12/railgun/env/lib/python2.7/site-packages/werkzeug/routing'
p79
sg12
g13
(g14
g15
NtRp80
(dp81
g18
I1
sg19
I0
sg20
I580
sg21
I0
sg22
I0
sg23
I467
sg24
I0
sbssg25
S'a\xf8h\xf0\xf9\x92{\x9ft\x0f\xd9\xe79\x15\xfe\x91'
p82
ssS'_home_lzz12_railgun_env_lib_python2_7_site-packages_Crypto_Random_Fortuna_SHAd256'
p83
(dp84
g6
(dp85
g8
S'_home_lzz12_railgun_env_lib_python2_7_site-packages_Crypto_Random_Fortuna_SHAd256.html'
p86
sg10
S'/home/lzz12/railgun/env/lib/python2.7/site-packages/Crypto/Random/Fortuna/SHAd256'
p87
sg12
g13
(g14
g15
NtRp88
(dp89
g18
I1
sg19
I0
sg20
I38
sg21
I0
sg22
I0
sg23
I19
sg24
I0
sbssg25
S']4\xd7\x9eT%\xe7\xbc\xbb\xb9\t\xca\xb1_v\x80'
p90
ssS'_home_lzz12_railgun_env_lib_python2_7_site-packages_blinker_base'
p91
(dp92
g6
(dp93
g8
S'_home_lzz12_railgun_env_lib_python2_7_site-packages_blinker_base.html'
p94
sg10
S'/home/lzz12/railgun/env/lib/python2.7/site-packages/blinker/base'
p95
sg12
g13
(g14
g15
NtRp96
(dp97
g18
I1
sg19
I0
sg20
I154
sg21
I0
sg22
I0
sg23
I108
sg24
I0
sbssg25
S'\x8c\x8az\x0330\xf0\xd2\x1c\xd4_\x8d3\xfb?\xba'
p98
ssS'_home_lzz12_railgun_env_lib_python2_7_site-packages_werkzeug_utils'
p99
(dp100
g6
(dp101
g8
S'_home_lzz12_railgun_env_lib_python2_7_site-packages_werkzeug_utils.html'
p102
sg10
S'/home/lzz12/railgun/env/lib/python2.7/site-packages/werkzeug/utils'
p103
sg12
g13
(g14
g15
NtRp104
(dp105
g18
I1
sg19
I0
sg20
I240
sg21
I0
sg22
I0
sg23
I177
sg24
I0
sbssg25
S'#kvB\x07\x8c\x19\x91f\xc7\x18\xea\xa1O\xf9\xd3'
p106
ssS'_home_lzz12_railgun_env_lib_python2_7_site-packages_Crypto_Cipher_blockalgo'
p107
(dp108
g6
(dp109
g8
S'_home_lzz12_railgun_env_lib_python2_7_site-packages_Crypto_Cipher_blockalgo.html'
p110
sg10
S'/home/lzz12/railgun/env/lib/python2.7/site-packages/Crypto/Cipher/blockalgo'
p111
sg12
g13
(g14
g15
NtRp112
(dp113
g18
I1
sg19
I0
sg20
I69
sg21
I0
sg22
I0
sg23
I53
sg24
I0
sbssg25
S'\x1583\x94\xb5\x94`\xa6\xc1b\x90\x0e\x81\\\xea\xc4'
p114
ssS'_home_lzz12_railgun_env_lib_python2_7_site-packages_jinja2_loaders'
p115
(dp116
g6
(dp117
g8
S'_home_lzz12_railgun_env_lib_python2_7_site-packages_jinja2_loaders.html'
p118
sg10
S'/home/lzz12/railgun/env/lib/python2.7/site-packages/jinja2/loaders'
p119
sg12
g13
(g14
g15
NtRp120
(dp121
g18
I1
sg19
I0
sg20
I221
sg21
I0
sg22
I0
sg23
I168
sg24
I0
sbssg25
S'\xd4\x7f\xdd\xb8`C~\xcb\xc1\xaa\xc5\xff\x9c\xd9\x9aI'
p122
ssS'_home_lzz12_railgun_env_lib_python2_7_site-packages_pytz_lazy'
p123
(dp124
g6
(dp125
g8
S'_home_lzz12_railgun_env_lib_python2_7_site-packages_pytz_lazy.html'
p126
sg10
S'/home/lzz12/railgun/env/lib/python2.7/site-packages/pytz/lazy'
p127
sg12
g13
(g14
g15
NtRp128
(dp129
g18
I1
sg19
I0
sg20
I97
sg21
I0
sg22
I0
sg23
I39
sg24
I0
sbssg25
S'\x058\xdf\x83Dk\x8b+\xcc\xd5\x9f\x84 ra\x8a'
p130
ssS'_home_lzz12_railgun_env_lib_python2_7_site-packages_werkzeug_urls'
p131
(dp132
g6
(dp133
g8
S'_home_lzz12_railgun_env_lib_python2_7_site-packages_werkzeug_urls.html'
p134
sg10
S'/home/lzz12/railgun/env/lib/python2.7/site-packages/werkzeug/urls'
p135
sg12
g13
(g14
g15
NtRp136
(dp137
g18
I1
sg19
I0
sg20
I379
sg21
I0
sg22
I0
sg23
I307
sg24
I0
sbssg25
S'\x14;\x80\x10\x02\x9b1\xc5\x8c\x1a\xdb\x81_^\xa6\xf3'
p138
ssS'_home_lzz12_railgun_env_lib_python2_7_site-packages_flask_wrappers'
p139
(dp140
g6
(dp141
g8
S'_home_lzz12_railgun_env_lib_python2_7_site-packages_flask_wrappers.html'
p142
sg10
S'/home/lzz12/railgun/env/lib/python2.7/site-packages/flask/wrappers'
p143
sg12
g13
(g14
g15
NtRp144
(dp145
g18
I1
sg19
I0
sg20
I62
sg21
I0
sg22
I0
sg23
I39
sg24
I0
sbssg25
S'.\x8f\xa9+\x0f{\x07Rj\xe1\x08\x1c\x12\xbazF'
p146
ssS'tests_pyscorer_data___init__'
p147
(dp148
g6
(dp149
g8
S'tests_pyscorer_data___init__.html'
p150
sg10
S'tests/pyscorer_data/__init__'
p151
sg12
g13
(g14
g15
NtRp152
(dp153
g18
I1
sg19
I0
sg20
I0
sg21
I0
sg22
I0
sg23
I0
sg24
I0
sbssg25
S'/D^\xd2T\xc3n`\xe0ZU\xd9\xdd\x06\x8a}'
p154
ssS'_home_lzz12_railgun_env_lib_python2_7_site-packages_Crypto_Cipher___init__'
p155
(dp156
g6
(dp157
g8
S'_home_lzz12_railgun_env_lib_python2_7_site-packages_Crypto_Cipher___init__.html'
p158
sg10
S'/home/lzz12/railgun/env/lib/python2.7/site-packages/Crypto/Cipher/__init__'
p159
sg12
g13
(g14
g15
NtRp160
(dp161
g18
I1
sg19
I0
sg20
I3
sg21
I0
sg22
I0
sg23
I0
sg24
I0
sbssg25
S'\x96\xde\xa3iP\xb6\xfa:\xf5Z\xddR&\x81\xfe\x83'
p162
ssS'railgun_common___init__'
p163
(dp164
g6
(dp165
g8
S'railgun_common___init__.html'
p166
sg10
S'railgun/common/__init__'
p167
sg12
g13
(g14
g15
NtRp168
(dp169
g18
I1
sg19
I0
sg20
I1
sg21
I0
sg22
I0
sg23
I0
sg24
I0
sbssg25
S"\xdd\x1c\xc2\x7fh_'\x9e|\xae\x8a`\xe3\x812e"
p170
ssS'_home_lzz12_railgun_env_lib_python2_7_site-packages_babel_support'
p171
(dp172
g6
(dp173
g8
S'_home_lzz12_railgun_env_lib_python2_7_site-packages_babel_support.html'
p174
sg10
S'/home/lzz12/railgun/env/lib/python2.7/site-packages/babel/support'
p175
sg12
g13
(g14
g15
NtRp176
(dp177
g18
I1
sg19
I0
sg20
I249
sg21
I0
sg22
I0
sg23
I165
sg24
I0
sbssg25
S'\xd9\xb607\xb3\x98z\xb1\x9d\xbc:5\xbb\x18\xb9\xe5'
p178
ssS'_home_lzz12_railgun_env_lib_python2_7_site-packages_flask_signals'
p179
(dp180
g6
(dp181
g8
S'_home_lzz12_railgun_env_lib_python2_7_site-packages_flask_signals.html'
p182
sg10
S'/home/lzz12/railgun/env/lib/python2.7/site-packages/flask/signals'
p183
sg12
g13
(g14
g15
NtRp184
(dp185
g18
I1
sg19
I0
sg20
I28
sg21
I0
sg22
I0
sg23
I13
sg24
I0
sbssg25
S'46\xe7\xbcCp\xd3\xa4;\t\xa0OO+\x99\x9b'
p186
ssS'_home_lzz12_railgun_env_lib_python2_7_site-packages_markdown_extensions___init__'
p187
(dp188
g6
(dp189
g8
S'_home_lzz12_railgun_env_lib_python2_7_site-packages_markdown_extensions___init__.html'
p190
sg10
S'/home/lzz12/railgun/env/lib/python2.7/site-packages/markdown/extensions/__init__'
p191
sg12
g13
(g14
g15
NtRp192
(dp193
g18
I1
sg19
I0
sg20
I34
sg21
I0
sg22
I0
sg23
I22
sg24
I0
sbssg25
S'\xb4u\xdf\x8b\x1c#Y\xbf\xd8\xc8\xba\xce\xbf\x06\x18z'
p194
ssS'_home_lzz12_railgun_env_lib_python2_7_site-packages_markdown_odict'
p195
(dp196
g6
(dp197
g8
S'_home_lzz12_railgun_env_lib_python2_7_site-packages_markdown_odict.html'
p198
sg10
S'/home/lzz12/railgun/env/lib/python2.7/site-packages/markdown/odict'
p199
sg12
g13
(g14
g15
NtRp200
(dp201
g18
I1
sg19
I0
sg20
I113
sg21
I14
sg22
I0
sg23
I84
sg24
I0
sbssg25
S';c\xd7;\xfd\xd1\xe0\xb1\xb00\xc1i\x19\x89\x8c\xda'
p202
ssS'railgun_common_pyutil'
p203
(dp204
g6
(dp205
g8
S'railgun_common_pyutil.html'
p206
sg10
S'railgun/common/pyutil'
p207
sg12
g13
(g14
g15
NtRp208
(dp209
g18
I1
sg19
I0
sg20
I22
sg21
I0
sg22
I0
sg23
I20
sg24
I0
sbssg25
S'\x19\xef\n\xe7D\xc8\xe0(\xac\xb0\x83l\x1dglz'
p210
ssS'_home_lzz12_railgun_env_lib_python2_7_site-packages_werkzeug__compat'
p211
(dp212
g6
(dp213
g8
S'_home_lzz12_railgun_env_lib_python2_7_site-packages_werkzeug__compat.html'
p214
sg10
S'/home/lzz12/railgun/env/lib/python2.7/site-packages/werkzeug/_compat'
p215
sg12
g13
(g14
g15
NtRp216
(dp217
g18
I1
sg19
I0
sg20
I146
sg21
I0
sg22
I0
sg23
I91
sg24
I0
sbssg25
S'N\xe2\xe2\xf4\xeav(IW\x97\x024V5\x92\xce'
p218
ssS'_home_lzz12_railgun_env_lib_python2_7_site-packages_Crypto_Util___init__'
p219
(dp220
g6
(dp221
g8
S'_home_lzz12_railgun_env_lib_python2_7_site-packages_Crypto_Util___init__.html'
p222
sg10
S'/home/lzz12/railgun/env/lib/python2.7/site-packages/Crypto/Util/__init__'
p223
sg12
g13
(g14
g15
NtRp224
(dp225
g18
I1
sg19
I0
sg20
I3
sg21
I0
sg22
I0
sg23
I0
sg24
I0
sbssg25
S'\xec\xf8\x9b\xed\x83\x8c-.r\x07#\xda\xb2bfb'
p226
ssS'runlib_python_pyhost_errors'
p227
(dp228
g6
(dp229
g8
S'runlib_python_pyhost_errors.html'
p230
sg10
S'runlib/python/pyhost/errors'
p231
sg12
g13
(g14
g15
NtRp232
(dp233
g18
I1
sg19
I0
sg20
I6
sg21
I0
sg22
I0
sg23
I4
sg24
I0
sbssg25
S'&\xc1N\xdf,\x91\xa2\xaco\x17]\xd1f\xd9\xe4\xe5'
p234
ssS'runlib_python_pyhost_objschema'
p235
(dp236
g6
(dp237
g8
S'runlib_python_pyhost_objschema.html'
p238
sg10
S'runlib/python/pyhost/objschema'
p239
sg12
g13
(g14
g15
NtRp240
(dp241
g18
I1
sg19
I0
sg20
I128
sg21
I0
sg22
I0
sg23
I83
sg24
I0
sbssg25
S'\xa1G\xc1\x0f\x07!?\xa8\xe0\x1a\x9c\x17\x9a\xca\xddO'
p242
ssS'_home_lzz12_railgun_env_lib_python2_7_site-packages_Crypto_Hash_SHA256'
p243
(dp244
g6
(dp245
g8
S'_home_lzz12_railgun_env_lib_python2_7_site-packages_Crypto_Hash_SHA256.html'
p246
sg10
S'/home/lzz12/railgun/env/lib/python2.7/site-packages/Crypto/Hash/SHA256'
p247
sg12
g13
(g14
g15
NtRp248
(dp249
g18
I1
sg19
I0
sg20
I23
sg21
I0
sg22
I0
sg23
I6
sg24
I0
sbssg25
S'd\xf7\xfeO\xf6\xbd,.O5C)H\xea\xb8\x9f'
p250
ssS'_home_lzz12_railgun_env_lib_python2_7_site-packages_babel_localtime___init__'
p251
(dp252
g6
(dp253
g8
S'_home_lzz12_railgun_env_lib_python2_7_site-packages_babel_localtime___init__.html'
p254
sg10
S'/home/lzz12/railgun/env/lib/python2.7/site-packages/babel/localtime/__init__'
p255
sg12
g13
(g14
g15
NtRp256
(dp257
g18
I1
sg19
I0
sg20
I40
sg21
I0
sg22
I0
sg23
I15
sg24
I0
sbssg25
S"\x9a\xf7\x9c\xee\xce\xc4:8\xef\xe6\xf0'\xee=\x98,"
p258
ssS'tests_test_pyscorer'
p259
(dp260
g6
(dp261
g8
S'tests_test_pyscorer.html'
p262
sg10
S'tests/test_pyscorer'
p263
sg12
g13
(g14
g15
NtRp264
(dp265
g18
I1
sg19
I0
sg20
I28
sg21
I0
sg22
I0
sg23
I1
sg24
I0
sbssg25
S'Qq\xe8zM\xe8d\xd0\x8c\xcf\xceI\x9b\xc5\xcak'
p266
ssS'_home_lzz12_railgun_env_lib_python2_7_site-packages_Crypto_Util__number_new'
p267
(dp268
g6
(dp269
g8
S'_home_lzz12_railgun_env_lib_python2_7_site-packages_Crypto_Util__number_new.html'
p270
sg10
S'/home/lzz12/railgun/env/lib/python2.7/site-packages/Crypto/Util/_number_new'
p271
sg12
g13
(g14
g15
NtRp272
(dp273
g18
I1
sg19
I0
sg20
I52
sg21
I0
sg22
I0
sg23
I43
sg24
I0
sbssg25
S'!\xe9\x8e\x8a\xe2\xc1%\xa6@\x89XF\xec\xc2C!'
p274
ssS'_home_lzz12_railgun_env_lib_python2_7_site-packages_babel___init__'
p275
(dp276
g6
(dp277
g8
S'_home_lzz12_railgun_env_lib_python2_7_site-packages_babel___init__.html'
p278
sg10
S'/home/lzz12/railgun/env/lib/python2.7/site-packages/babel/__init__'
p279
sg12
g13
(g14
g15
NtRp280
(dp281
g18
I1
sg19
I0
sg20
I3
sg21
I0
sg22
I0
sg23
I0
sg24
I0
sbssg25
S"mfG5#'2\xe0!J\x9c\xfbh\x07M\x81"
p282
ssS'_home_lzz12_railgun_env_lib_python2_7_site-packages_Crypto___init__'
p283
(dp284
g6
(dp285
g8
S'_home_lzz12_railgun_env_lib_python2_7_site-packages_Crypto___init__.html'
p286
sg10
S'/home/lzz12/railgun/env/lib/python2.7/site-packages/Crypto/__init__'
p287
sg12
g13
(g14
g15
NtRp288
(dp289
g18
I1
sg19
I0
sg20
I5
sg21
I0
sg22
I0
sg23
I0
sg24
I0
sbssg25
S'\x81G\xc0\xd0d\x8b\xcd*\xf9;\xdf\xc7\xfd9\x87\xb8'
p290
ssS'_home_lzz12_railgun_env_lib_python2_7_site-packages_babel_numbers'
p291
(dp292
g6
(dp293
g8
S'_home_lzz12_railgun_env_lib_python2_7_site-packages_babel_numbers.html'
p294
sg10
S'/home/lzz12/railgun/env/lib/python2.7/site-packages/babel/numbers'
p295
sg12
g13
(g14
g15
NtRp296
(dp297
g18
I1
sg19
I0
sg20
I282
sg21
I0
sg22
I0
sg23
I243
sg24
I0
sbssg25
S'\x88Y\xe5,\x8e\x1a\x8a\xea\xb6;\xccJ\x84\xf3\xd0\xe6'
p298
ssS'_home_lzz12_railgun_env_lib_python2_7_site-packages_markdown_inlinepatterns'
p299
(dp300
g6
(dp301
g8
S'_home_lzz12_railgun_env_lib_python2_7_site-packages_markdown_inlinepatterns.html'
p302
sg10
S'/home/lzz12/railgun/env/lib/python2.7/site-packages/markdown/inlinepatterns'
p303
sg12
g13
(g14
g15
NtRp304
(dp305
g18
I1
sg19
I0
sg20
I237
sg21
I29
sg22
I0
sg23
I168
sg24
I0
sbssg25
S')<\xf6\xca\xa8\xf0.\xc8\xfe\x97)\xdc\xc4\xbd\x91:'
p306
ssS'_home_lzz12_railgun_env_lib_python2_7_site-packages_pytz_exceptions'
p307
(dp308
g6
(dp309
g8
S'_home_lzz12_railgun_env_lib_python2_7_site-packages_pytz_exceptions.html'
p310
sg10
S'/home/lzz12/railgun/env/lib/python2.7/site-packages/pytz/exceptions'
p311
sg12
g13
(g14
g15
NtRp312
(dp313
g18
I1
sg19
I0
sg20
I6
sg21
I0
sg22
I0
sg23
I0
sg24
I0
sbssg25
S'\xb1z\nA\xebV\xdewl2\xcd\xec\xd1\xf4\xf1g'
p314
ssS'_home_lzz12_railgun_env_lib_python2_7_site-packages_Crypto_Random_OSRNG___init__'
p315
(dp316
g6
(dp317
g8
S'_home_lzz12_railgun_env_lib_python2_7_site-packages_Crypto_Random_OSRNG___init__.html'
p318
sg10
S'/home/lzz12/railgun/env/lib/python2.7/site-packages/Crypto/Random/OSRNG/__init__'
p319
sg12
g13
(g14
g15
NtRp320
(dp321
g18
I1
sg19
I0
sg20
I10
sg21
I0
sg22
I0
sg23
I5
sg24
I0
sbssg25
S'I\x010\xe3H\x89$\xffM\xee\xd5\x91"\x02/\x05'
p322
ssS'railgun_common_csvdata'
p323
(dp324
g6
(dp325
g8
S'railgun_common_csvdata.html'
p326
sg10
S'railgun/common/csvdata'
p327
sg12
g13
(g14
g15
NtRp328
(dp329
g18
I1
sg19
I0
sg20
I69
sg21
I0
sg22
I0
sg23
I49
sg24
I0
sbssg25
S'\x81\xe1Y^\xccxm\x8e\xeb\xbfDE:4\x945'
p330
ssS'railgun_common_url'
p331
(dp332
g6
(dp333
g8
S'railgun_common_url.html'
p334
sg10
S'railgun/common/url'
p335
sg12
g13
(g14
g15
NtRp336
(dp337
g18
I1
sg19
I0
sg20
I28
sg21
I0
sg22
I0
sg23
I22
sg24
I0
sbssg25
S'\xb3\x0f\xfcA\x158D\xcb\\\x0c\x9b\x8c\x1cL=='
p338
ssS'_home_lzz12_railgun_env_lib_python2_7_site-packages_jinja2_environment'
p339
(dp340
g6
(dp341
g8
S'_home_lzz12_railgun_env_lib_python2_7_site-packages_jinja2_environment.html'
p342
sg10
S'/home/lzz12/railgun/env/lib/python2.7/site-packages/jinja2/environment'
p343
sg12
g13
(g14
g15
NtRp344
(dp345
g18
I1
sg19
I0
sg20
I488
sg21
I0
sg22
I0
sg23
I391
sg24
I0
sbssg25
S'"\xb09\xba\xfdX\xb0\x17\xe1zE\xf0Xk\x9f\x0e'
p346
ssS'_home_lzz12_railgun_env_lib_python2_7_site-packages_jinja2_runtime'
p347
(dp348
g6
(dp349
g8
S'_home_lzz12_railgun_env_lib_python2_7_site-packages_jinja2_runtime.html'
p350
sg10
S'/home/lzz12/railgun/env/lib/python2.7/site-packages/jinja2/runtime'
p351
sg12
g13
(g14
g15
NtRp352
(dp353
g18
I1
sg19
I0
sg20
I291
sg21
I0
sg22
I0
sg23
I190
sg24
I0
sbssg25
S'\x19\xf7c\x96\x17V&l+P\x98<Tu4\xa8'
p354
ssS'_home_lzz12_railgun_env_lib_python2_7_site-packages_Crypto_Hash_hashalgo'
p355
(dp356
g6
(dp357
g8
S'_home_lzz12_railgun_env_lib_python2_7_site-packages_Crypto_Hash_hashalgo.html'
p358
sg10
S'/home/lzz12/railgun/env/lib/python2.7/site-packages/Crypto/Hash/hashalgo'
p359
sg12
g13
(g14
g15
NtRp360
(dp361
g18
I1
sg19
I0
sg20
I20
sg21
I0
sg22
I0
sg23
I10
sg24
I0
sbssg25
S'\xc5\xd5N\xb9\x9dw\xb2D\xc8\x96\x83\xc8\xdb\xa66\x89'
p362
ssS'_home_lzz12_railgun_env_lib_python2_7_site-packages_babel_core'
p363
(dp364
g6
(dp365
g8
S'_home_lzz12_railgun_env_lib_python2_7_site-packages_babel_core.html'
p366
sg10
S'/home/lzz12/railgun/env/lib/python2.7/site-packages/babel/core'
p367
sg12
g13
(g14
g15
NtRp368
(dp369
g18
I1
sg19
I0
sg20
I265
sg21
I0
sg22
I0
sg23
I174
sg24
I0
sbssg25
S'`\xb2\xc5\xc9R\xecSX\x7f\x1a\xd1\xcf0\xdd\xf6G'
p370
ssS'_home_lzz12_railgun_env_lib_python2_7_site-packages_flask_blueprints'
p371
(dp372
g6
(dp373
g8
S'_home_lzz12_railgun_env_lib_python2_7_site-packages_flask_blueprints.html'
p374
sg10
S'/home/lzz12/railgun/env/lib/python2.7/site-packages/flask/blueprints'
p375
sg12
g13
(g14
g15
NtRp376
(dp377
g18
I1
sg19
I0
sg20
I156
sg21
I0
sg22
I0
sg23
I118
sg24
I0
sbssg25
S'1D\xa1\x05E/\x93\xfd|\xb3q\xa6\x8a\xa6\xcc9'
p378
ssS'_home_lzz12_railgun_env_lib_python2_7_site-packages_markupsafe___init__'
p379
(dp380
g6
(dp381
g8
S'_home_lzz12_railgun_env_lib_python2_7_site-packages_markupsafe___init__.html'
p382
sg10
S'/home/lzz12/railgun/env/lib/python2.7/site-packages/markupsafe/__init__'
p383
sg12
g13
(g14
g15
NtRp384
(dp385
g18
I1
sg19
I0
sg20
I155
sg21
I0
sg22
I0
sg23
I89
sg24
I0
sbssg25
S"\x81\x81'K\xc7\x0c\x1f\xd3\x80/\xc5'=\xfe\xea\x1f"
p386
ssS'_home_lzz12_railgun_env_lib_python2_7_site-packages_markdown_blockprocessors'
p387
(dp388
g6
(dp389
g8
S'_home_lzz12_railgun_env_lib_python2_7_site-packages_markdown_blockprocessors.html'
p390
sg10
S'/home/lzz12/railgun/env/lib/python2.7/site-packages/markdown/blockprocessors'
p391
sg12
g13
(g14
g15
NtRp392
(dp393
g18
I1
sg19
I0
sg20
I273
sg21
I4
sg22
I0
sg23
I209
sg24
I0
sbssg25
S'\x1bBF\xc0\xdcA\xc0h6>\xbe\x91\x85\x8f\xadf'
p394
ssS'_home_lzz12_railgun_env_lib_python2_7_site-packages_flask_babel___init__'
p395
(dp396
g6
(dp397
g8
S'_home_lzz12_railgun_env_lib_python2_7_site-packages_flask_babel___init__.html'
p398
sg10
S'/home/lzz12/railgun/env/lib/python2.7/site-packages/flask_babel/__init__'
p399
sg12
g13
(g14
g15
NtRp400
(dp401
g18
I1
sg19
I0
sg20
I197
sg21
I0
sg22
I0
sg23
I151
sg24
I0
sbssg25
S'\x83\xab\xa2\xf0\xd3\xf55|\xf5~\x99\xeck\xd3\xe4\xc5'
p402
ssS'_home_lzz12_railgun_env_lib_python2_7_site-packages_blinker__saferef'
p403
(dp404
g6
(dp405
g8
S'_home_lzz12_railgun_env_lib_python2_7_site-packages_blinker__saferef.html'
p406
sg10
S'/home/lzz12/railgun/env/lib/python2.7/site-packages/blinker/_saferef'
p407
sg12
g13
(g14
g15
NtRp408
(dp409
g18
I1
sg19
I0
sg20
I83
sg21
I0
sg22
I0
sg23
I61
sg24
I0
sbssg25
S'T\xd8ZoS\tG\xc9\xc3=\xa6\xb1\xb1\x1e.c'
p410
ssS'_home_lzz12_railgun_env_lib_python2_7_site-packages_rarfile'
p411
(dp412
g6
(dp413
g8
S'_home_lzz12_railgun_env_lib_python2_7_site-packages_rarfile.html'
p414
sg10
S'/home/lzz12/railgun/env/lib/python2.7/site-packages/rarfile'
p415
sg12
g13
(g14
g15
NtRp416
(dp417
g18
I1
sg19
I0
sg20
I1076
sg21
I0
sg22
I0
sg23
I854
sg24
I0
sbssg25
S'\x96\xf2\x80r\x85\xf1\xf5pJ\xc0\x9d\xb8\xe0mv\xd7'
p418
ssS'railgun_common_tempdir'
p419
(dp420
g6
(dp421
g8
S'railgun_common_tempdir.html'
p422
sg10
S'railgun/common/tempdir'
p423
sg12
g13
(g14
g15
NtRp424
(dp425
g18
I1
sg19
I0
sg20
I62
sg21
I0
sg22
I0
sg23
I46
sg24
I0
sbssg25
S'[\xbb\x93\xbe\x92`\xf4{\xc7\xdd\xb6\x9e^\x8b~\xde'
p426
ssS'_home_lzz12_railgun_env_lib_python2_7_site-packages_Crypto_Random__UserFriendlyRNG'
p427
(dp428
g6
(dp429
g8
S'_home_lzz12_railgun_env_lib_python2_7_site-packages_Crypto_Random__UserFriendlyRNG.html'
p430
sg10
S'/home/lzz12/railgun/env/lib/python2.7/site-packages/Crypto/Random/_UserFriendlyRNG'
p431
sg12
g13
(g14
g15
NtRp432
(dp433
g18
I1
sg19
I0
sg20
I119
sg21
I0
sg22
I0
sg23
I77
sg24
I0
sbssg25
S'm\xb8\xc9\xfe&\x1f5w\xab\xc2\xd5\\\xc9\xc0\x1b\xc1'
p434
ssS'_home_lzz12_railgun_env_lib_python2_7_site-packages_jinja2_exceptions'
p435
(dp436
g6
(dp437
g8
S'_home_lzz12_railgun_env_lib_python2_7_site-packages_jinja2_exceptions.html'
p438
sg10
S'/home/lzz12/railgun/env/lib/python2.7/site-packages/jinja2/exceptions'
p439
sg12
g13
(g14
g15
NtRp440
(dp441
g18
I1
sg19
I0
sg20
I70
sg21
I0
sg22
I0
sg23
I47
sg24
I0
sbssg25
S'\xf3z\xf9\xb0i}\xb8\xf8a\x05\xda\n?\x1c\xfb\x1d'
p442
ssS'_home_lzz12_railgun_env_lib_python2_7_site-packages_flask_exthook'
p443
(dp444
g6
(dp445
g8
S'_home_lzz12_railgun_env_lib_python2_7_site-packages_flask_exthook.html'
p446
sg10
S'/home/lzz12/railgun/env/lib/python2.7/site-packages/flask/exthook'
p447
sg12
g13
(g14
g15
NtRp448
(dp449
g18
I1
sg19
I0
sg20
I54
sg21
I0
sg22
I0
sg23
I24
sg24
I0
sbssg25
S'\x81\xa8\x93h\x123\rtT\xd2\xe8\x8ejs\x0f\x12'
p450
ssS'_home_lzz12_railgun_env_lib_python2_7_site-packages_jinja2_visitor'
p451
(dp452
g6
(dp453
g8
S'_home_lzz12_railgun_env_lib_python2_7_site-packages_jinja2_visitor.html'
p454
sg10
S'/home/lzz12/railgun/env/lib/python2.7/site-packages/jinja2/visitor'
p455
sg12
g13
(g14
g15
NtRp456
(dp457
g18
I1
sg19
I0
sg20
I40
sg21
I0
sg22
I0
sg23
I31
sg24
I0
sbssg25
S'\xe6\xab\xca \xee.^\x1c\xd1D\xf8\xfd\xf2\xb7\x0e0'
p458
ssS'_home_lzz12_railgun_env_lib_python2_7_site-packages_Crypto_Random_Fortuna_FortunaGenerator'
p459
(dp460
g6
(dp461
g8
S'_home_lzz12_railgun_env_lib_python2_7_site-packages_Crypto_Random_Fortuna_FortunaGenerator.html'
p462
sg10
S'/home/lzz12/railgun/env/lib/python2.7/site-packages/Crypto/Random/Fortuna/FortunaGenerator'
p463
sg12
g13
(g14
g15
NtRp464
(dp465
g18
I1
sg19
I0
sg20
I60
sg21
I0
sg22
I0
sg23
I40
sg24
I0
sbssg25
S"\xc3\xae\x0b:\xd0\xc0\xd6'b\x89u\xc5\x1f\xac\xecm"
p466
ssS'_home_lzz12_railgun_env_lib_python2_7_site-packages_werkzeug_exceptions'
p467
(dp468
g6
(dp469
g8
S'_home_lzz12_railgun_env_lib_python2_7_site-packages_werkzeug_exceptions.html'
p470
sg10
S'/home/lzz12/railgun/env/lib/python2.7/site-packages/werkzeug/exceptions'
p471
sg12
g13
(g14
g15
NtRp472
(dp473
g18
I1
sg19
I0
sg20
I159
sg21
I2
sg22
I0
sg23
I32
sg24
I0
sbssg25
S"\xe2^\x8b\xcf\xd2\x12')K\x83\x8b\xc8\x868|{"
p474
ssS'_home_lzz12_railgun_env_lib_python2_7_site-packages_werkzeug_wsgi'
p475
(dp476
g6
(dp477
g8
S'_home_lzz12_railgun_env_lib_python2_7_site-packages_werkzeug_wsgi.html'
p478
sg10
S'/home/lzz12/railgun/env/lib/python2.7/site-packages/werkzeug/wsgi'
p479
sg12
g13
(g14
g15
NtRp480
(dp481
g18
I1
sg19
I0
sg20
I449
sg21
I0
sg22
I0
sg23
I381
sg24
I0
sbssg25
S'q\xbd\xc5\xe5\x15\xa1\xb4\xaf\x02::z\x88D\xa4\xdf'
p482
ssS'railgun_common_hw'
p483
(dp484
g6
(dp485
g8
S'railgun_common_hw.html'
p486
sg10
S'railgun/common/hw'
p487
sg12
g13
(g14
g15
NtRp488
(dp489
g18
I1
sg19
I0
sg20
I311
sg21
I0
sg22
I0
sg23
I238
sg24
I0
sbssg25
S'/\x17\x1e\xa62\xea\x11\xac\xfa\x9d\xf4P;2\xfbj'
p490
ssS'_home_lzz12_railgun_env_lib_python2_7_site-packages_markdown_serializers'
p491
(dp492
g6
(dp493
g8
S'_home_lzz12_railgun_env_lib_python2_7_site-packages_markdown_serializers.html'
p494
sg10
S'/home/lzz12/railgun/env/lib/python2.7/site-packages/markdown/serializers'
p495
sg12
g13
(g14
g15
NtRp496
(dp497
g18
I1
sg19
I0
sg20
I153
sg21
I18
sg22
I0
sg23
I132
sg24
I0
sbssg25
S'\x9f\xe8z\x81\xe0\xadw9\xb5\x14\xb5@\xf1\x17rL'
p498
ssS'tests_pyscorer_data_sample'
p499
(dp500
g6
(dp501
g8
S'tests_pyscorer_data_sample.html'
p502
sg10
S'tests/pyscorer_data/sample'
p503
sg12
g13
(g14
g15
NtRp504
(dp505
g18
I1
sg19
I0
sg20
I10
sg21
I0
sg22
I0
sg23
I1
sg24
I0
sbssg25
S'\x98\x1d\x1d^\x1c\x95\xd8\xd2\xa5X<\x15\xda\xf5F\xba'
p506
ssS'runlib_python_pyhost_utility'
p507
(dp508
g6
(dp509
g8
S'runlib_python_pyhost_utility.html'
p510
sg10
S'runlib/python/pyhost/utility'
p511
sg12
g13
(g14
g15
NtRp512
(dp513
g18
I1
sg19
I0
sg20
I70
sg21
I0
sg22
I0
sg23
I29
sg24
I0
sbssg25
S'=\x98\x1ac\x15\x85&2\x85Z\x16\x89\x0c\xee\xfb,'
p514
ssS'_home_lzz12_railgun_env_lib_python2_7_site-packages_Crypto_Random_Fortuna___init__'
p515
(dp516
g6
(dp517
g8
S'_home_lzz12_railgun_env_lib_python2_7_site-packages_Crypto_Random_Fortuna___init__.html'
p518
sg10
S'/home/lzz12/railgun/env/lib/python2.7/site-packages/Crypto/Random/Fortuna/__init__'
p519
sg12
g13
(g14
g15
NtRp520
(dp521
g18
I1
sg19
I0
sg20
I0
sg21
I0
sg22
I0
sg23
I0
sg24
I0
sbssg25
S'\xca\xf5\x9f\x7f\x88\xdfa\x831|T\x1d\xbc}\xa5v'
p522
ssS'_home_lzz12_railgun_env_lib_python2_7_site-packages_Crypto_pct_warnings'
p523
(dp524
g6
(dp525
g8
S'_home_lzz12_railgun_env_lib_python2_7_site-packages_Crypto_pct_warnings.html'
p526
sg10
S'/home/lzz12/railgun/env/lib/python2.7/site-packages/Crypto/pct_warnings'
p527
sg12
g13
(g14
g15
NtRp528
(dp529
g18
I1
sg19
I0
sg20
I9
sg21
I0
sg22
I0
sg23
I0
sg24
I0
sbssg25
S'\x0b\x8e\xbfI\x9a%\xca\x8cS\x0f\x98+\xa2C\xbe\x8b'
p530
ssS'_home_lzz12_railgun_env_lib_python2_7_site-packages_flask_ctx'
p531
(dp532
g6
(dp533
g8
S'_home_lzz12_railgun_env_lib_python2_7_site-packages_flask_ctx.html'
p534
sg10
S'/home/lzz12/railgun/env/lib/python2.7/site-packages/flask/ctx'
p535
sg12
g13
(g14
g15
NtRp536
(dp537
g18
I1
sg19
I0
sg20
I140
sg21
I0
sg22
I0
sg23
I103
sg24
I0
sbssg25
S'\xb7BZ\x12\x03\xd2\\\xb6\xbaR\x073w\xbamb'
p538
ssS'_home_lzz12_railgun_env_lib_python2_7_site-packages_flask__compat'
p539
(dp540
g6
(dp541
g8
S'_home_lzz12_railgun_env_lib_python2_7_site-packages_flask__compat.html'
p542
sg10
S'/home/lzz12/railgun/env/lib/python2.7/site-packages/flask/_compat'
p543
sg12
g13
(g14
g15
NtRp544
(dp545
g18
I1
sg19
I0
sg20
I38
sg21
I0
sg22
I0
sg23
I20
sg24
I0
sbssg25
S's\xcd\x8a\xd4\xc2\xb9\x888\x0c\x97\xf4\x02\xc7\xcf\xf3\xeb'
p546
ssS'_home_lzz12_railgun_env_lib_python2_7_site-packages_jinja2_parser'
p547
(dp548
g6
(dp549
g8
S'_home_lzz12_railgun_env_lib_python2_7_site-packages_jinja2_parser.html'
p550
sg10
S'/home/lzz12/railgun/env/lib/python2.7/site-packages/jinja2/parser'
p551
sg12
g13
(g14
g15
NtRp552
(dp553
g18
I1
sg19
I0
sg20
I646
sg21
I0
sg22
I0
sg23
I586
sg24
I0
sbssg25
S'ph\r=(e\x9eI\xef\x90\xfe\x9c\xb7\xa9^Y'
p554
ssS'_home_lzz12_railgun_env_lib_python2_7_site-packages_jinja2__compat'
p555
(dp556
g6
(dp557
g8
S'_home_lzz12_railgun_env_lib_python2_7_site-packages_jinja2__compat.html'
p558
sg10
S'/home/lzz12/railgun/env/lib/python2.7/site-packages/jinja2/_compat'
p559
sg12
g13
(g14
g15
NtRp560
(dp561
g18
I1
sg19
I0
sg20
I98
sg21
I0
sg22
I0
sg23
I37
sg24
I0
sbssg25
S'\x07\x8aA\xcd\xc3\xabF7\xc0\xbbI\xd9\xd1\xbd\xff\x16'
p562
ssS'_home_lzz12_railgun_env_lib_python2_7_site-packages_markdown___init__'
p563
(dp564
g6
(dp565
g8
S'_home_lzz12_railgun_env_lib_python2_7_site-packages_markdown___init__.html'
p566
sg10
S'/home/lzz12/railgun/env/lib/python2.7/site-packages/markdown/__init__'
p567
sg12
g13
(g14
g15
NtRp568
(dp569
g18
I1
sg19
I0
sg20
I195
sg21
I7
sg22
I0
sg23
I160
sg24
I0
sbssg25
S'l\x02\xbe\xd1_&AKS>\xd2\x83\xe9\xe7@\xfa'
p570
ssS'_home_lzz12_railgun_env_lib_python2_7_site-packages_flask_config'
p571
(dp572
g6
(dp573
g8
S'_home_lzz12_railgun_env_lib_python2_7_site-packages_flask_config.html'
p574
sg10
S'/home/lzz12/railgun/env/lib/python2.7/site-packages/flask/config'
p575
sg12
g13
(g14
g15
NtRp576
(dp577
g18
I1
sg19
I0
sg20
I52
sg21
I0
sg22
I0
sg23
I34
sg24
I0
sbssg25
S'x\x0ck\x03\xc3\xd4\xbd\xe6l\xe9\xa2uP\x07\xdf\xbd'
p578
ssS'_home_lzz12_railgun_env_lib_python2_7_site-packages_flask_app'
p579
(dp580
g6
(dp581
g8
S'_home_lzz12_railgun_env_lib_python2_7_site-packages_flask_app.html'
p582
sg10
S'/home/lzz12/railgun/env/lib/python2.7/site-packages/flask/app'
p583
sg12
g13
(g14
g15
NtRp584
(dp585
g18
I1
sg19
I0
sg20
I528
sg21
I0
sg22
I0
sg23
I399
sg24
I0
sbssg25
S'\xbe~2\xbd\xd3tt\x9e\xd5\xf5\r\xe0\xf6Y8F'
p586
ssS'_home_lzz12_railgun_env_lib_python2_7_site-packages_flask_module'
p587
(dp588
g6
(dp589
g8
S'_home_lzz12_railgun_env_lib_python2_7_site-packages_flask_module.html'
p590
sg10
S'/home/lzz12/railgun/env/lib/python2.7/site-packages/flask/module'
p591
sg12
g13
(g14
g15
NtRp592
(dp593
g18
I1
sg19
I0
sg20
I13
sg21
I0
sg22
I0
sg23
I7
sg24
I0
sbssg25
S'\xf0\xdb\x0fZ4%l\x89\x9c]\xb9\xf7v\xe7@;'
p594
ssS'_home_lzz12_railgun_env_lib_python2_7_site-packages_jinja2_filters'
p595
(dp596
g6
(dp597
g8
S'_home_lzz12_railgun_env_lib_python2_7_site-packages_jinja2_filters.html'
p598
sg10
S'/home/lzz12/railgun/env/lib/python2.7/site-packages/jinja2/filters'
p599
sg12
g13
(g14
g15
NtRp600
(dp601
g18
I1
sg19
I0
sg20
I343
sg21
I0
sg22
I0
sg23
I265
sg24
I0
sbssg25
S'\xef#\xc6\xad\x92\x96v^M\x9d\xf0\xfeR\xcal\xc5'
p602
ssS'_home_lzz12_railgun_env_lib_python2_7_site-packages_pytz___init__'
p603
(dp604
g6
(dp605
g8
S'_home_lzz12_railgun_env_lib_python2_7_site-packages_pytz___init__.html'
p606
sg10
S'/home/lzz12/railgun/env/lib/python2.7/site-packages/pytz/__init__'
p607
sg12
g13
(g14
g15
NtRp608
(dp609
g18
I1
sg19
I0
sg20
I181
sg21
I0
sg22
I0
sg23
I82
sg24
I0
sbssg25
S'x\xbcO_\x0e\xa4\xe1|\xb4Op\xc7\x90_\xd5\xbd'
p610
ssS'_home_lzz12_railgun_env_lib_python2_7_site-packages_werkzeug_wrappers'
p611
(dp612
g6
(dp613
g8
S'_home_lzz12_railgun_env_lib_python2_7_site-packages_werkzeug_wrappers.html'
p614
sg10
S'/home/lzz12/railgun/env/lib/python2.7/site-packages/werkzeug/wrappers'
p615
sg12
g13
(g14
g15
NtRp616
(dp617
g18
I1
sg19
I0
sg20
I567
sg21
I0
sg22
I0
sg23
I371
sg24
I0
sbssg25
S'\xe9]\xab\xee\xb5\x9cE\x81\xaa\x05\xe6\x17L\x8c\xe9o'
p618
ssS'_home_lzz12_railgun_env_lib_python2_7_site-packages_Crypto_Util_Counter'
p619
(dp620
g6
(dp621
g8
S'_home_lzz12_railgun_env_lib_python2_7_site-packages_Crypto_Util_Counter.html'
p622
sg10
S'/home/lzz12/railgun/env/lib/python2.7/site-packages/Crypto/Util/Counter'
p623
sg12
g13
(g14
g15
NtRp624
(dp625
g18
I1
sg19
I0
sg20
I28
sg21
I0
sg22
I0
sg23
I20
sg24
I0
sbssg25
S'\xe7{A\xce{\x0c\xcf:U^\xbc\xdd\xd5\x93F\xf4'
p626
ssS'railgun_common_osutil'
p627
(dp628
g6
(dp629
g8
S'railgun_common_osutil.html'
p630
sg10
S'railgun/common/osutil'
p631
sg12
g13
(g14
g15
NtRp632
(dp633
g18
I1
sg19
I0
sg20
I30
sg21
I0
sg22
I0
sg23
I21
sg24
I0
sbssg25
S'\xe5\x8c\x90\x12\xe5jU\xc2Ow1\xda\xb4`\x12r'
p634
ssS'_home_lzz12_railgun_env_lib_python2_7_site-packages_Crypto_Util_py3compat'
p635
(dp636
g6
(dp637
g8
S'_home_lzz12_railgun_env_lib_python2_7_site-packages_Crypto_Util_py3compat.html'
p638
sg10
S'/home/lzz12/railgun/env/lib/python2.7/site-packages/Crypto/Util/py3compat'
p639
sg12
g13
(g14
g15
NtRp640
(dp641
g18
I1
sg19
I0
sg20
I38
sg21
I0
sg22
I0
sg23
I27
sg24
I0
sbssg25
S'\xba+\x07y\x18\xf699`\xc1\x14\xfe\xb5\xb9\x01\xce'
p642
ssS'_home_lzz12_railgun_env_lib_python2_7_site-packages_pytz_tzinfo'
p643
(dp644
g6
(dp645
g8
S'_home_lzz12_railgun_env_lib_python2_7_site-packages_pytz_tzinfo.html'
p646
sg10
S'/home/lzz12/railgun/env/lib/python2.7/site-packages/pytz/tzinfo'
p647
sg12
g13
(g14
g15
NtRp648
(dp649
g18
I1
sg19
I0
sg20
I178
sg21
I0
sg22
I0
sg23
I79
sg24
I0
sbssg25
S'\xe9HX\xd3o\xde\xd8%\x9a\x08\xfapq\xe3\x15\xaf'
p650
ssS'_home_lzz12_railgun_env_lib_python2_7_site-packages_flask_helpers'
p651
(dp652
g6
(dp653
g8
S'_home_lzz12_railgun_env_lib_python2_7_site-packages_flask_helpers.html'
p654
sg10
S'/home/lzz12/railgun/env/lib/python2.7/site-packages/flask/helpers'
p655
sg12
g13
(g14
g15
NtRp656
(dp657
g18
I1
sg19
I0
sg20
I277
sg21
I0
sg22
I0
sg23
I219
sg24
I0
sbssg25
S'\xda\x93\xa0\x04\xc9\xac\x01fl\x0eA\xcb\x8fl\x85J'
p658
ssS'_home_lzz12_railgun_env_lib_python2_7_site-packages_werkzeug_local'
p659
(dp660
g6
(dp661
g8
S'_home_lzz12_railgun_env_lib_python2_7_site-packages_werkzeug_local.html'
p662
sg10
S'/home/lzz12/railgun/env/lib/python2.7/site-packages/werkzeug/local'
p663
sg12
g13
(g14
g15
NtRp664
(dp665
g18
I1
sg19
I0
sg20
I210
sg21
I0
sg22
I0
sg23
I98
sg24
I0
sbssg25
S'ww\x90~\xb7\xca4K\x82\xcb@)\x0f-\xc5\xce'
p666
ssS'_home_lzz12_railgun_env_lib_python2_7_site-packages_blinker__utilities'
p667
(dp668
g6
(dp669
g8
S'_home_lzz12_railgun_env_lib_python2_7_site-packages_blinker__utilities.html'
p670
sg10
S'/home/lzz12/railgun/env/lib/python2.7/site-packages/blinker/_utilities'
p671
sg12
g13
(g14
g15
NtRp672
(dp673
g18
I1
sg19
I0
sg20
I100
sg21
I0
sg22
I0
sg23
I67
sg24
I0
sbssg25
S'^\x06\xed\xb7"\x92\x18\xe4p\xa69\xed6\x83\x85\x9b'
p674
ssS'_home_lzz12_railgun_env_lib_python2_7_site-packages_flask___init__'
p675
(dp676
g6
(dp677
g8
S'_home_lzz12_railgun_env_lib_python2_7_site-packages_flask___init__.html'
p678
sg10
S'/home/lzz12/railgun/env/lib/python2.7/site-packages/flask/__init__'
p679
sg12
g13
(g14
g15
NtRp680
(dp681
g18
I1
sg19
I0
sg20
I18
sg21
I0
sg22
I0
sg23
I0
sg24
I0
sbssg25
S'\xbap\xbb\x0bT{\x1b\xee\xb3R\xfde\x14\xac>O'
p682
ssS'railgun_common_lazy_i18n'
p683
(dp684
g6
(dp685
g8
S'railgun_common_lazy_i18n.html'
p686
sg10
S'railgun/common/lazy_i18n'
p687
sg12
g13
(g14
g15
NtRp688
(dp689
g18
I1
sg19
I0
sg20
I27
sg21
I0
sg22
I0
sg23
I14
sg24
I0
sbssg25
S'h\xb2\xc0\x8b\xb6\xef\xbc\x1b\r\xd8\x04s\x9f\x8c\x11\xc3'
p690
ssS'_home_lzz12_railgun_env_lib_python2_7_site-packages_jinja2_lexer'
p691
(dp692
g6
(dp693
g8
S'_home_lzz12_railgun_env_lib_python2_7_site-packages_jinja2_lexer.html'
p694
sg10
S'/home/lzz12/railgun/env/lib/python2.7/site-packages/jinja2/lexer'
p695
sg12
g13
(g14
g15
NtRp696
(dp697
g18
I1
sg19
I0
sg20
I346
sg21
I0
sg22
I0
sg23
I231
sg24
I0
sbssg25
S'\x14/\x1c\x1a\xac,:\xa3t*\ry\x89\xdfF\xa0'
p698
ssS'_home_lzz12_railgun_env_lib_python2_7_site-packages_werkzeug__internal'
p699
(dp700
g6
(dp701
g8
S'_home_lzz12_railgun_env_lib_python2_7_site-packages_werkzeug__internal.html'
p702
sg10
S'/home/lzz12/railgun/env/lib/python2.7/site-packages/werkzeug/_internal'
p703
sg12
g13
(g14
g15
NtRp704
(dp705
g18
I1
sg19
I0
sg20
I235
sg21
I0
sg22
I0
sg23
I185
sg24
I0
sbssg25
S'\x02V/8\xbfAu\xb92\xe0\xb2\x03*<^<'
p706
ssS'railgun_common_fileutil'
p707
(dp708
g6
(dp709
g8
S'railgun_common_fileutil.html'
p710
sg10
S'railgun/common/fileutil'
p711
sg12
g13
(g14
g15
NtRp712
(dp713
g18
I1
sg19
I0
sg20
I119
sg21
I0
sg22
I0
sg23
I86
sg24
I0
sbssg25
S'P\xf09\x83Y\xee2R(<)#<\xd1Y\x81'
p714
ssS'_home_lzz12_railgun_env_lib_python2_7_site-packages_blinker___init__'
p715
(dp716
g6
(dp717
g8
S'_home_lzz12_railgun_env_lib_python2_7_site-packages_blinker___init__.html'
p718
sg10
S'/home/lzz12/railgun/env/lib/python2.7/site-packages/blinker/__init__'
p719
sg12
g13
(g14
g15
NtRp720
(dp721
g18
I1
sg19
I0
sg20
I3
sg21
I0
sg22
I0
sg23
I0
sg24
I0
sbssg25
S'<Z\xc5B\x8b\xaa\x05 \x00\xb4>,\x11\xd7\xdb\xf5'
p722
ssS'railgun_common_dateutil'
p723
(dp724
g6
(dp725
g8
S'railgun_common_dateutil.html'
p726
sg10
S'railgun/common/dateutil'
p727
sg12
g13
(g14
g15
NtRp728
(dp729
g18
I1
sg19
I0
sg20
I13
sg21
I0
sg22
I0
sg23
I5
sg24
I0
sbssg25
S'i\x02\xb0\xe9W\xc2pF.\xbd\x14\x88\xa5\xd72\xa0'
p730
ssS'_home_lzz12_railgun_env_lib_python2_7_site-packages_jinja2_nodes'
p731
(dp732
g6
(dp733
g8
S'_home_lzz12_railgun_env_lib_python2_7_site-packages_jinja2_nodes.html'
p734
sg10
S'/home/lzz12/railgun/env/lib/python2.7/site-packages/jinja2/nodes'
p735
sg12
g13
(g14
g15
NtRp736
(dp737
g18
I1
sg19
I0
sg20
I423
sg21
I0
sg22
I0
sg23
I223
sg24
I0
sbssg25
S'\xd1\xace\xdc\xf9k$\x85\x06\x1fV\xd0\xe9D\x99S'
p738
ssS'_home_lzz12_railgun_env_lib_python2_7_site-packages_markdown_util'
p739
(dp740
g6
(dp741
g8
S'_home_lzz12_railgun_env_lib_python2_7_site-packages_markdown_util.html'
p742
sg10
S'/home/lzz12/railgun/env/lib/python2.7/site-packages/markdown/util'
p743
sg12
g13
(g14
g15
NtRp744
(dp745
g18
I1
sg19
I0
sg20
I59
sg21
I18
sg22
I0
sg23
I32
sg24
I0
sbssg25
S'\xc5\x12\xd1)\xc4\xadF\xd33\x88{1\x1bC\x1c|'
p746
ssS'_home_lzz12_railgun_env_lib_python2_7_site-packages_Crypto_Random_Fortuna_FortunaAccumulator'
p747
(dp748
g6
(dp749
g8
S'_home_lzz12_railgun_env_lib_python2_7_site-packages_Crypto_Random_Fortuna_FortunaAccumulator.html'
p750
sg10
S'/home/lzz12/railgun/env/lib/python2.7/site-packages/Crypto/Random/Fortuna/FortunaAccumulator'
p751
sg12
g13
(g14
g15
NtRp752
(dp753
g18
I1
sg19
I0
sg20
I74
sg21
I0
sg22
I0
sg23
I48
sg24
I0
sbssg25
S'\xa3\xff\x99\xd6j\xc9\xba&^E\xf4\x17\x84\x9d\x93\xa1'
p754
ssS'_home_lzz12_railgun_env_lib_python2_7_site-packages_markdown_postprocessors'
p755
(dp756
g6
(dp757
g8
S'_home_lzz12_railgun_env_lib_python2_7_site-packages_markdown_postprocessors.html'
p758
sg10
S'/home/lzz12/railgun/env/lib/python2.7/site-packages/markdown/postprocessors'
p759
sg12
g13
(g14
g15
NtRp760
(dp761
g18
I1
sg19
I0
sg20
I49
sg21
I1
sg22
I0
sg23
I31
sg24
I0
sbssg25
S'\x1d[m\x06\x14\x96\x89\xee\xddK+\x13\x12\xfc{\xb9'
p762
ssS'_home_lzz12_railgun_env_lib_python2_7_site-packages_babel_localtime__unix'
p763
(dp764
g6
(dp765
g8
S'_home_lzz12_railgun_env_lib_python2_7_site-packages_babel_localtime__unix.html'
p766
sg10
S'/home/lzz12/railgun/env/lib/python2.7/site-packages/babel/localtime/_unix'
p767
sg12
g13
(g14
g15
NtRp768
(dp769
g18
I1
sg19
I0
sg20
I79
sg21
I0
sg22
I0
sg23
I54
sg24
I0
sbssg25
S'\xbf\xd5\xb7\xb0\x19\x9c+\x7f\xcc\xd1Lq\x11\xf4\xd4&'
p770
ssS'_home_lzz12_railgun_env_lib_python2_7_site-packages_babel_dates'
p771
(dp772
g6
(dp773
g8
S'_home_lzz12_railgun_env_lib_python2_7_site-packages_babel_dates.html'
p774
sg10
S'/home/lzz12/railgun/env/lib/python2.7/site-packages/babel/dates'
p775
sg12
g13
(g14
g15
NtRp776
(dp777
g18
I1
sg19
I0
sg20
I494
sg21
I0
sg22
I0
sg23
I428
sg24
I0
sbssg25
S'\x04\x1a\x98\xdfq\x05>N\xa9\xa0w1%\x15\x1d\x19'
p778
ssS'_home_lzz12_railgun_env_lib_python2_7_site-packages_Crypto_Cipher_AES'
p779
(dp780
g6
(dp781
g8
S'_home_lzz12_railgun_env_lib_python2_7_site-packages_Crypto_Cipher_AES.html'
p782
sg10
S'/home/lzz12/railgun/env/lib/python2.7/site-packages/Crypto/Cipher/AES'
p783
sg12
g13
(g14
g15
NtRp784
(dp785
g18
I1
sg19
I0
sg20
I18
sg21
I0
sg22
I0
sg23
I2
sg24
I0
sbssg25
S"u\xe9\x84\x96\xe2'\xac\x89\xf5\x10^+|\xb3\x8c\xf2"
p786
ssS'_home_lzz12_railgun_env_lib_python2_7_site-packages_jinja2_utils'
p787
(dp788
g6
(dp789
g8
S'_home_lzz12_railgun_env_lib_python2_7_site-packages_jinja2_utils.html'
p790
sg10
S'/home/lzz12/railgun/env/lib/python2.7/site-packages/jinja2/utils'
p791
sg12
g13
(g14
g15
NtRp792
(dp793
g18
I1
sg19
I0
sg20
I263
sg21
I0
sg22
I0
sg23
I185
sg24
I0
sbssg25
S'\x17\xe9g\x81:\x8a\x99\x91\xd9m"\x87$\x91\x08\x1a'
p794
ssS'_home_lzz12_railgun_env_lib_python2_7_site-packages_Crypto_Random_OSRNG_rng_base'
p795
(dp796
g6
(dp797
g8
S'_home_lzz12_railgun_env_lib_python2_7_site-packages_Crypto_Random_OSRNG_rng_base.html'
p798
sg10
S'/home/lzz12/railgun/env/lib/python2.7/site-packages/Crypto/Random/OSRNG/rng_base'
p799
sg12
g13
(g14
g15
NtRp800
(dp801
g18
I1
sg19
I0
sg20
I44
sg21
I0
sg22
I0
sg23
I30
sg24
I0
sbssg25
S'\xb7\x0c\xfa\x88&=\xa0\xa4\xbd\xaaZ\x1c\xda\x82\xe2\xf8'
p802
ssS'_home_lzz12_railgun_env_lib_python2_7_site-packages_flask_debughelpers'
p803
(dp804
g6
(dp805
g8
S'_home_lzz12_railgun_env_lib_python2_7_site-packages_flask_debughelpers.html'
p806
sg10
S'/home/lzz12/railgun/env/lib/python2.7/site-packages/flask/debughelpers'
p807
sg12
g13
(g14
g15
NtRp808
(dp809
g18
I1
sg19
I0
sg20
I35
sg21
I0
sg22
I0
sg23
I25
sg24
I0
sbssg25
S'\xb1\x83\xab\xaa\xfbi\x87\xe1\x0515\x06\xb8\xe5\xcd\xa5'
p810
ssS'runlib_python_pyhost___init__'
p811
(dp812
g6
(dp813
g8
S'runlib_python_pyhost___init__.html'
p814
sg10
S'runlib/python/pyhost/__init__'
p815
sg12
g13
(g14
g15
NtRp816
(dp817
g18
I1
sg19
I0
sg20
I1
sg21
I0
sg22
I0
sg23
I0
sg24
I0
sbssg25
S'\x95\x8e\x83 \x1dN\xbe\xedl\xc2\xc6u\xd4%F\xe6'
p818
ssS'railgun_common_crypto'
p819
(dp820
g6
(dp821
g8
S'railgun_common_crypto.html'
p822
sg10
S'railgun/common/crypto'
p823
sg12
g13
(g14
g15
NtRp824
(dp825
g18
I1
sg19
I0
sg20
I33
sg21
I0
sg22
I0
sg23
I22
sg24
I0
sbssg25
S'EV(\x9c\x80]\xf7\xf5\xe4$\x97!M`b\x03'
p826
ssS'_home_lzz12_railgun_env_lib_python2_7_site-packages_markdown___version__'
p827
(dp828
g6
(dp829
g8
S'_home_lzz12_railgun_env_lib_python2_7_site-packages_markdown___version__.html'
p830
sg10
S'/home/lzz12/railgun/env/lib/python2.7/site-packages/markdown/__version__'
p831
sg12
g13
(g14
g15
NtRp832
(dp833
g18
I1
sg19
I0
sg20
I14
sg21
I0
sg22
I0
sg23
I3
sg24
I0
sbssg25
S'V\x9e\xd70\xf0\x88\xd9+\x9d\xd20\xba\xcf\xd3\xf0\x81'
p834
ssS'_home_lzz12_railgun_env_lib_python2_7_site-packages_flask_globals'
p835
(dp836
g6
(dp837
g8
S'_home_lzz12_railgun_env_lib_python2_7_site-packages_flask_globals.html'
p838
sg10
S'/home/lzz12/railgun/env/lib/python2.7/site-packages/flask/globals'
p839
sg12
g13
(g14
g15
NtRp840
(dp841
g18
I1
sg19
I0
sg20
I24
sg21
I0
sg22
I0
sg23
I12
sg24
I0
sbssg25
S'\xe5\xc3BR"`\x02V\x91\xd3\xf3\xfd[\xa5;\xc3'
p842
ssS'_home_lzz12_railgun_env_lib_python2_7_site-packages_pep8'
p843
(dp844
g6
(dp845
g8
S'_home_lzz12_railgun_env_lib_python2_7_site-packages_pep8.html'
p846
sg10
S'/home/lzz12/railgun/env/lib/python2.7/site-packages/pep8'
p847
sg12
g13
(g14
g15
NtRp848
(dp849
g18
I1
sg19
I0
sg20
I1049
sg21
I0
sg22
I0
sg23
I894
sg24
I0
sbssg25
S'M1-X\xc8\xcd\x05_f\xa4\xbf\x95\x87\xc7\x1a\xb4'
p850
ssS'_home_lzz12_railgun_env_lib_python2_7_site-packages_werkzeug___init__'
p851
(dp852
g6
(dp853
g8
S'_home_lzz12_railgun_env_lib_python2_7_site-packages_werkzeug___init__.html'
p854
sg10
S'/home/lzz12/railgun/env/lib/python2.7/site-packages/werkzeug/__init__'
p855
sg12
g13
(g14
g15
NtRp856
(dp857
g18
I1
sg19
I0
sg20
I29
sg21
I0
sg22
I0
sg23
I4
sg24
I0
sbssg25
S'\xf2]\xce9\xfcC\x89\xa0\x92R\\%\x04\xfbi\x1f'
p858
ssS'_home_lzz12_railgun_env_lib_python2_7_site-packages_jinja2_compiler'
p859
(dp860
g6
(dp861
g8
S'_home_lzz12_railgun_env_lib_python2_7_site-packages_jinja2_compiler.html'
p862
sg10
S'/home/lzz12/railgun/env/lib/python2.7/site-packages/jinja2/compiler'
p863
sg12
g13
(g14
g15
NtRp864
(dp865
g18
I1
sg19
I0
sg20
I1030
sg21
I0
sg22
I0
sg23
I885
sg24
I0
sbssg25
S'>*1\xfe\xa9\x03n\x10\x07-\xda\xa4tH\xb7\xfc'
p866
ssS'_home_lzz12_railgun_env_lib_python2_7_site-packages_markdown_preprocessors'
p867
(dp868
g6
(dp869
g8
S'_home_lzz12_railgun_env_lib_python2_7_site-packages_markdown_preprocessors.html'
p870
sg10
S'/home/lzz12/railgun/env/lib/python2.7/site-packages/markdown/preprocessors'
p871
sg12
g13
(g14
g15
NtRp872
(dp873
g18
I1
sg19
I0
sg20
I207
sg21
I1
sg22
I0
sg23
I177
sg24
I0
sbssg25
S'\xfa\x84\xa9\x9a\x19Z\xe8\x82\xb67\xe19\xfa\xa8\xd5\x8a'
p874
ssS'_home_lzz12_railgun_env_lib_python2_7_site-packages_babel__compat'
p875
(dp876
g6
(dp877
g8
S'_home_lzz12_railgun_env_lib_python2_7_site-packages_babel__compat.html'
p878
sg10
S'/home/lzz12/railgun/env/lib/python2.7/site-packages/babel/_compat'
p879
sg12
g13
(g14
g15
NtRp880
(dp881
g18
I1
sg19
I0
sg20
I33
sg21
I0
sg22
I0
sg23
I14
sg24
I0
sbssg25
S'\xacn\xc1f%\xeb\ts\x80}\x9d\xac\x16\xc1\xb7m'
p882
ssS'railgun___init__'
p883
(dp884
g6
(dp885
g8
S'railgun___init__.html'
p886
sg10
S'railgun/__init__'
p887
sg12
g13
(g14
g15
NtRp888
(dp889
g18
I1
sg19
I0
sg20
I0
sg21
I0
sg22
I0
sg23
I0
sg24
I0
sbssg25
S'\xb2V\x1a6:&\xccl6\xfaj\xfa=\xdc\n\x8d'
p890
ssS'config'
p891
(dp892
g6
(dp893
g8
S'config.html'
p894
sg10
g891
sg12
g13
(g14
g15
NtRp895
(dp896
g18
I1
sg19
I0
sg20
I68
sg21
I0
sg22
I0
sg23
I25
sg24
I0
sbssg25
S'\x8e\x19\xfdv{\x93[\x8d\x8e\x0c\xa3J\xfaX\t\xbd'
p897
ssS'_home_lzz12_railgun_env_lib_python2_7_site-packages_Crypto_Util_number'
p898
(dp899
g6
(dp900
g8
S'_home_lzz12_railgun_env_lib_python2_7_site-packages_Crypto_Util_number.html'
p901
sg10
S'/home/lzz12/railgun/env/lib/python2.7/site-packages/Crypto/Util/number'
p902
sg12
g13
(g14
g15
NtRp903
(dp904
g18
I1
sg19
I0
sg20
I203
sg21
I0
sg22
I0
sg23
I171
sg24
I0
sbssg25
S"\xe2\x89\xe2iJ\x07'VQ\x85\x85nX\xa7\x94."
p905
ssS'_home_lzz12_railgun_env_lib_python2_7_site-packages_markupsafe__compat'
p906
(dp907
g6
(dp908
g8
S'_home_lzz12_railgun_env_lib_python2_7_site-packages_markupsafe__compat.html'
p909
sg10
S'/home/lzz12/railgun/env/lib/python2.7/site-packages/markupsafe/_compat'
p910
sg12
g13
(g14
g15
NtRp911
(dp912
g18
I1
sg19
I0
sg20
I14
sg21
I0
sg22
I0
sg23
I5
sg24
I0
sbssg25
S'\x99\x16\xdbp\x85/\x12e\xfa.\xcb\xca\xb3T\x01\xdd'
p913
ssS'_home_lzz12_railgun_env_lib_python2_7_site-packages_markdown_treeprocessors'
p914
(dp915
g6
(dp916
g8
S'_home_lzz12_railgun_env_lib_python2_7_site-packages_markdown_treeprocessors.html'
p917
sg10
S'/home/lzz12/railgun/env/lib/python2.7/site-packages/markdown/treeprocessors'
p918
sg12
g13
(g14
g15
NtRp919
(dp920
g18
I1
sg19
I0
sg20
I187
sg21
I1
sg22
I0
sg23
I165
sg24
I0
sbssg25
S'\xf5\xb9\xe5\xbe\x8a\x85mh\xed\xc1D\xae\xd2\xf9\xbe\xea'
p921
ssS'_home_lzz12_railgun_env_lib_python2_7_site-packages_werkzeug_datastructures'
p922
(dp923
g6
(dp924
g8
S'_home_lzz12_railgun_env_lib_python2_7_site-packages_werkzeug_datastructures.html'
p925
sg10
S'/home/lzz12/railgun/env/lib/python2.7/site-packages/werkzeug/datastructures'
p926
sg12
g13
(g14
g15
NtRp927
(dp928
g18
I1
sg19
I0
sg20
I1281
sg21
I0
sg22
I0
sg23
I880
sg24
I0
sbssg25
S'\x11\r\x9a\xbb\xb2\xb8\xe0\xd6U\x9f\xd4U\xff\xd4g\x8f'
p929
ssS'_home_lzz12_railgun_env_lib_python2_7_site-packages_flask_templating'
p930
(dp931
g6
(dp932
g8
S'_home_lzz12_railgun_env_lib_python2_7_site-packages_flask_templating.html'
p933
sg10
S'/home/lzz12/railgun/env/lib/python2.7/site-packages/flask/templating'
p934
sg12
g13
(g14
g15
NtRp935
(dp936
g18
I1
sg19
I0
sg20
I78
sg21
I0
sg22
I0
sg23
I60
sg24
I0
sbssg25
S'\x7f\xdd\xd9\xef\xb7\xe8\xb2&\x83\xd3\x16\xc7&\xe7\x13\xb4'
p937
ssS'_home_lzz12_railgun_env_lib_python2_7_site-packages_jinja2_defaults'
p938
(dp939
g6
(dp940
g8
S'_home_lzz12_railgun_env_lib_python2_7_site-packages_jinja2_defaults.html'
p941
sg10
S'/home/lzz12/railgun/env/lib/python2.7/site-packages/jinja2/defaults'
p942
sg12
g13
(g14
g15
NtRp943
(dp944
g18
I1
sg19
I0
sg20
I19
sg21
I0
sg22
I0
sg23
I0
sg24
I0
sbssg25
S'\xe2s1\x07\x11\xcc\xb8t@\xa5n<\x98\x97"j'
p945
ssS'_home_lzz12_railgun_env_lib_python2_7_site-packages_werkzeug_http'
p946
(dp947
g6
(dp948
g8
S'_home_lzz12_railgun_env_lib_python2_7_site-packages_werkzeug_http.html'
p949
sg10
S'/home/lzz12/railgun/env/lib/python2.7/site-packages/werkzeug/http'
p950
sg12
g13
(g14
g15
NtRp951
(dp952
g18
I1
sg19
I0
sg20
I373
sg21
I4
sg22
I0
sg23
I315
sg24
I0
sbssg25
S'm\xf7\xe4*\xc8\xeb\xb9K\x05\xbc\x1b\x7f*\xd6U\xfc'
p953
ssS'_home_lzz12_railgun_env_lib_python2_7_site-packages_babel_localedata'
p954
(dp955
g6
(dp956
g8
S'_home_lzz12_railgun_env_lib_python2_7_site-packages_babel_localedata.html'
p957
sg10
S'/home/lzz12/railgun/env/lib/python2.7/site-packages/babel/localedata'
p958
sg12
g13
(g14
g15
NtRp959
(dp960
g18
I1
sg19
I0
sg20
I98
sg21
I0
sg22
I0
sg23
I74
sg24
I0
sbssg25
S'\x05\xcdI\xbf\xe7\x00f\x93\x81S\rj$K\xec{'
p961
ssS'_home_lzz12_railgun_env_lib_python2_7_site-packages_markdown_blockparser'
p962
(dp963
g6
(dp964
g8
S'_home_lzz12_railgun_env_lib_python2_7_site-packages_markdown_blockparser.html'
p965
sg10
S'/home/lzz12/railgun/env/lib/python2.7/site-packages/markdown/blockparser'
p966
sg12
g13
(g14
g15
NtRp967
(dp968
g18
I1
sg19
I0
sg20
I30
sg21
I0
sg22
I0
sg23
I17
sg24
I0
sbssg25
S'*+\x85z\xd91\xf1_\xff\xe1\xdejp\xdf\x9d\xa6'
p969
ssS'_home_lzz12_railgun_env_lib_python2_7_site-packages_Crypto_Random___init__'
p970
(dp971
g6
(dp972
g8
S'_home_lzz12_railgun_env_lib_python2_7_site-packages_Crypto_Random___init__.html'
p973
sg10
S'/home/lzz12/railgun/env/lib/python2.7/site-packages/Crypto/Random/__init__'
p974
sg12
g13
(g14
g15
NtRp975
(dp976
g18
I1
sg19
I0
sg20
I10
sg21
I0
sg22
I0
sg23
I3
sg24
I0
sbssg25
S'\xa2\xe9\xfa\x83zRK\xd7\xf2u53\xb5\xe1\x02\x0e'
p977
ssS'runlib_python_pyhost_scorer'
p978
(dp979
g6
(dp980
g8
S'runlib_python_pyhost_scorer.html'
p981
sg10
S'runlib/python/pyhost/scorer'
p982
sg12
g13
(g14
g15
NtRp983
(dp984
g18
I1
sg19
I0
sg20
I259
sg21
I0
sg22
I0
sg23
I120
sg24
I0
sbssg25
S'JEn\xfd\x15\x9d\x92A\x8d\xa7\x8f\\\x9a)\x18\xa7'
p985
ssS'_home_lzz12_railgun_env_lib_python2_7_site-packages_jinja2___init__'
p986
(dp987
g6
(dp988
g8
S'_home_lzz12_railgun_env_lib_python2_7_site-packages_jinja2___init__.html'
p989
sg10
S'/home/lzz12/railgun/env/lib/python2.7/site-packages/jinja2/__init__'
p990
sg12
g13
(g14
g15
NtRp991
(dp992
g18
I1
sg19
I0
sg20
I11
sg21
I0
sg22
I0
sg23
I0
sg24
I0
sbssg25
S'\\\r\x9b(\x8d\x88\x89\xaaaX\xe8\xfc\x15~=!'
p993
ssS'_home_lzz12_railgun_env_lib_python2_7_site-packages_jinja2_optimizer'
p994
(dp995
g6
(dp996
g8
S'_home_lzz12_railgun_env_lib_python2_7_site-packages_jinja2_optimizer.html'
p997
sg10
S'/home/lzz12/railgun/env/lib/python2.7/site-packages/jinja2/optimizer'
p998
sg12
g13
(g14
g15
NtRp999
(dp1000
g18
I1
sg19
I0
sg20
I31
sg21
I0
sg22
I0
sg23
I21
sg24
I0
sbssg25
S'\x9f\x07}\x9a/\x1am$\xe2ht\x16\x9c0\x9d\x1a'
p1001
ssS'_home_lzz12_railgun_env_lib_python2_7_site-packages_Crypto_PublicKey___init__'
p1002
(dp1003
g6
(dp1004
g8
S'_home_lzz12_railgun_env_lib_python2_7_site-packages_Crypto_PublicKey___init__.html'
p1005
sg10
S'/home/lzz12/railgun/env/lib/python2.7/site-packages/Crypto/PublicKey/__init__'
p1006
sg12
g13
(g14
g15
NtRp1007
(dp1008
g18
I1
sg19
I0
sg20
I3
sg21
I0
sg22
I0
sg23
I0
sg24
I0
sbssg25
S'\x8c\xb5\xc6\xc3\xfbe\xc6\xbd\xd03\x8a\xe2\x83\x98\x0eq'
p1009
ssS'_home_lzz12_railgun_env_lib_python2_7_site-packages_itsdangerous'
p1010
(dp1011
g6
(dp1012
g8
S'_home_lzz12_railgun_env_lib_python2_7_site-packages_itsdangerous.html'
p1013
sg10
S'/home/lzz12/railgun/env/lib/python2.7/site-packages/itsdangerous'
p1014
sg12
g13
(g14
g15
NtRp1015
(dp1016
g18
I1
sg19
I0
sg20
I413
sg21
I0
sg22
I0
sg23
I293
sg24
I0
sbssg25
S'`M\xf3d\xd8Y\x103\x8e\xe2\xe0\x84\xa8\x93p\xd8'
p1017
ssS'_home_lzz12_railgun_env_lib_python2_7_site-packages_flask_babel__compat'
p1018
(dp1019
g6
(dp1020
g8
S'_home_lzz12_railgun_env_lib_python2_7_site-packages_flask_babel__compat.html'
p1021
sg10
S'/home/lzz12/railgun/env/lib/python2.7/site-packages/flask_babel/_compat'
p1022
sg12
g13
(g14
g15
NtRp1023
(dp1024
g18
I1
sg19
I0
sg20
I8
sg21
I0
sg22
I0
sg23
I2
sg24
I0
sbssg25
S'\xd2\xd7\xc6\x1e\xf9\x0f\t\xeb\xe2bk\xe4Q\xc7\xa1)'
p1025
ssS'tests_test_timezone'
p1026
(dp1027
g6
(dp1028
g8
S'tests_test_timezone.html'
p1029
sg10
S'tests/test_timezone'
p1030
sg12
g13
(g14
g15
NtRp1031
(dp1032
g18
I1
sg19
I0
sg20
I20
sg21
I0
sg22
I0
sg23
I0
sg24
I0
sbssg25
S'\xa2W\x9dZ~\xee\xf8N>5\x15z\xbf$\x1e\xa5'
p1033
ssS'_home_lzz12_railgun_env_lib_python2_7_site-packages_flask_ext___init__'
p1034
(dp1035
g6
(dp1036
g8
S'_home_lzz12_railgun_env_lib_python2_7_site-packages_flask_ext___init__.html'
p1037
sg10
S'/home/lzz12/railgun/env/lib/python2.7/site-packages/flask/ext/__init__'
p1038
sg12
g13
(g14
g15
NtRp1039
(dp1040
g18
I1
sg19
I0
sg20
I7
sg21
I0
sg22
I0
sg23
I0
sg24
I0
sbssg25
S'\xc7\xd4\x92\x9b\xb0\xb4h\xf1Rs\xd6\xf8vw\xdd\x07'
p1041
ssS'_home_lzz12_railgun_env_lib_python2_7_site-packages_pytz_tzfile'
p1042
(dp1043
g6
(dp1044
g8
S'_home_lzz12_railgun_env_lib_python2_7_site-packages_pytz_tzfile.html'
p1045
sg10
S'/home/lzz12/railgun/env/lib/python2.7/site-packages/pytz/tzfile'
p1046
sg12
g13
(g14
g15
NtRp1047
(dp1048
g18
I1
sg19
I0
sg20
I81
sg21
I0
sg22
I0
sg23
I19
sg24
I0
sbssg25
S'\xc9\xc4j\xca\xf4\xeaen\x9d\xedi/&\x9ad\xd4'
p1049
ssS'_home_lzz12_railgun_env_lib_python2_7_site-packages_flask_sessions'
p1050
(dp1051
g6
(dp1052
g8
S'_home_lzz12_railgun_env_lib_python2_7_site-packages_flask_sessions.html'
p1053
sg10
S'/home/lzz12/railgun/env/lib/python2.7/site-packages/flask/sessions'
p1054
sg12
g13
(g14
g15
NtRp1055
(dp1056
g18
I1
sg19
I0
sg20
I143
sg21
I0
sg22
I0
sg23
I93
sg24
I0
sbssg25
S't\xe1\x17C\xd5\x02X\xca\x18|\x136\x81wb7'
p1057
ssS'runtests'
p1058
(dp1059
g6
(dp1060
g8
S'runtests.html'
p1061
sg10
g1058
sg12
g13
(g14
g15
NtRp1062
(dp1063
g18
I1
sg19
I0
sg20
I6
sg21
I0
sg22
I0
sg23
I0
sg24
I0
sbssg25
S'\xfd\xaf\xbc4W\x05\x02\x11\xe2\x95t\x01\x03S\x0f\xd8'
p1064
ssS'_home_lzz12_railgun_env_lib_python2_7_site-packages_flask_json'
p1065
(dp1066
g6
(dp1067
g8
S'_home_lzz12_railgun_env_lib_python2_7_site-packages_flask_json.html'
p1068
sg10
S'/home/lzz12/railgun/env/lib/python2.7/site-packages/flask/json'
p1069
sg12
g13
(g14
g15
NtRp1070
(dp1071
g18
I1
sg19
I0
sg20
I83
sg21
I0
sg22
I0
sg23
I54
sg24
I0
sbssg25
S'w\x0b\xb8|\x08A\x83\x9a\xa9n\x84z].,\xab'
p1072
sssS'version'
p1073
S'3.7.1'
p1074
sS'settings'
p1075
S'\x98\xa8x\xfe"r\xb5K\x98\xb1N\\\x99\x9e\xf3\xe5'
p1076
sS'format'
p1077
I1
s.